target datalayout = "e-m:e-p270:32:32-p271:32:32-p272:64:64-i64:64-i128:128-f80:128-n8:16:32:64-S128"
target triple = "x86_64-pc-linux-gnu"

%"class.rocksdb::BlobFileGarbage" = type { i64, i64, i64 }
%"class.std::__cxx11::basic_string" = type { %"struct.std::__cxx11::basic_string<char>::_Alloc_hider", i64, %union.anon }
%"struct.std::__cxx11::basic_string<char>::_Alloc_hider" = type { ptr }
%union.anon = type { i64, [8 x i8] }
%"class.std::__cxx11::basic_ostringstream" = type { %"class.std::basic_ostream.base", %"class.std::__cxx11::basic_stringbuf", %"class.std::basic_ios" }
%"class.std::basic_ostream.base" = type { ptr }
%"class.std::__cxx11::basic_stringbuf" = type { %"class.std::basic_streambuf", i32, %"class.std::__cxx11::basic_string" }
%"class.std::basic_streambuf" = type { ptr, ptr, ptr, ptr, ptr, ptr, ptr, %"class.std::locale" }
%"class.std::locale" = type { ptr }
%"class.std::basic_ios" = type { %"class.std::ios_base", ptr, i8, i8, ptr, ptr, ptr, ptr }
%"class.std::ios_base" = type { ptr, i64, i64, i32, i32, i32, ptr, %"struct.std::ios_base::_Words", [8 x %"struct.std::ios_base::_Words"], i32, ptr, %"class.std::locale" }
%"struct.std::ios_base::_Words" = type { ptr, i64 }
%"class.rocksdb::JSONWriter" = type { i32, i8, i8, %"class.std::__cxx11::basic_ostringstream" }

@.str.9 = private unnamed_addr constant [15 x i8] c"BlobFileNumber\00", align 1
@.str.10 = private unnamed_addr constant [17 x i8] c"GarbageBlobCount\00", align 1
@.str.11 = private unnamed_addr constant [17 x i8] c"GarbageBlobBytes\00", align 1
@.str.16 = private unnamed_addr constant [3 x i8] c", \00", align 1

; Function Attrs: inlinehint mustprogress nounwind uwtable
define linkonce_odr noundef i32 @_ZStorSt12_Ios_IostateS_(i32 noundef %0, i32 noundef %1) #5 comdat {
  %3 = alloca i32, align 4
  %4 = alloca i32, align 4
  store i32 %0, ptr %3, align 4, !tbaa !146
  store i32 %1, ptr %4, align 4, !tbaa !146
  %5 = load i32, ptr %3, align 4, !tbaa !146
  %6 = load i32, ptr %4, align 4, !tbaa !146
  %7 = or i32 %5, %6
  ret i32 %7
}

; Function Attrs: mustprogress nounwind uwtable
define available_externally noundef i32 @_ZNKSt9basic_iosIcSt11char_traitsIcEE7rdstateEv(ptr noundef nonnull align 8 dereferenceable(264) %0) #4 align 2 {
  %2 = alloca ptr, align 8
  store ptr %0, ptr %2, align 8, !tbaa !114
  %3 = load ptr, ptr %2, align 8
  %4 = getelementptr inbounds nuw %"class.std::ios_base", ptr %3, i32 0, i32 5
  %5 = load i32, ptr %4, align 8, !tbaa !147
  ret i32 %5
}

; Function Attrs: mustprogress nounwind uwtable
define linkonce_odr noundef i64 @_ZNSt11char_traitsIcE6lengthEPKc(ptr noundef %0) #4 comdat align 2 {
  %2 = alloca ptr, align 8
  store ptr %0, ptr %2, align 8, !tbaa !17
  %3 = load ptr, ptr %2, align 8, !tbaa !17
  %4 = call i64 @strlen(ptr noundef %3) #14
  ret i64 %4
}

; Function Attrs: mustprogress uwtable
define available_externally void @_ZNSt9basic_iosIcSt11char_traitsIcEE8setstateESt12_Ios_Iostate(ptr noundef nonnull align 8 dereferenceable(264) %0, i32 noundef %1) #0 align 2 {
  %3 = alloca ptr, align 8
  %4 = alloca i32, align 4
  store ptr %0, ptr %3, align 8, !tbaa !114
  store i32 %1, ptr %4, align 4, !tbaa !146
  %5 = load ptr, ptr %3, align 8
  %6 = call noundef i32 @_ZNKSt9basic_iosIcSt11char_traitsIcEE7rdstateEv(ptr noundef nonnull align 8 dereferenceable(264) %5)
  %7 = load i32, ptr %4, align 4, !tbaa !146
  %8 = call noundef i32 @_ZStorSt12_Ios_IostateS_(i32 noundef %6, i32 noundef %7)
  call void @_ZNSt9basic_iosIcSt11char_traitsIcEE5clearESt12_Ios_Iostate(ptr noundef nonnull align 8 dereferenceable(264) %5, i32 noundef %8)
  ret void
}

; Function Attrs: mustprogress uwtable
define available_externally noundef nonnull align 8 dereferenceable(8) ptr @_ZNSolsEm(ptr noundef nonnull align 8 dereferenceable(8) %0, i64 noundef %1) #0 align 2 {
  %3 = alloca ptr, align 8
  %4 = alloca i64, align 8
  store ptr %0, ptr %3, align 8, !tbaa !37
  store i64 %1, ptr %4, align 8, !tbaa !16
  %5 = load ptr, ptr %3, align 8
  %6 = load i64, ptr %4, align 8, !tbaa !16
  %7 = call noundef nonnull align 8 dereferenceable(8) ptr @_ZNSo9_M_insertImEERSoT_(ptr noundef nonnull align 8 dereferenceable(8) %5, i64 noundef %6)
  ret ptr %7
}

; Function Attrs: inlinehint mustprogress uwtable
define available_externally noundef nonnull align 8 dereferenceable(8) ptr @_ZStlsISt11char_traitsIcEERSt13basic_ostreamIcT_ES5_PKc(ptr noundef nonnull align 8 dereferenceable(8) %0, ptr noundef %1) #1 {
  %3 = alloca ptr, align 8
  %4 = alloca ptr, align 8
  store ptr %0, ptr %3, align 8, !tbaa !37
  store ptr %1, ptr %4, align 8, !tbaa !17
  %5 = load ptr, ptr %4, align 8, !tbaa !17
  %6 = icmp ne ptr %5, null
  br i1 %6, label %13, label %7

7:                                                ; preds = %2
  %8 = load ptr, ptr %3, align 8, !tbaa !37
  %9 = load ptr, ptr %8, align 8, !tbaa !35
  %10 = getelementptr i8, ptr %9, i64 -24
  %11 = load i64, ptr %10, align 8
  %12 = getelementptr inbounds i8, ptr %8, i64 %11
  call void @_ZNSt9basic_iosIcSt11char_traitsIcEE8setstateESt12_Ios_Iostate(ptr noundef nonnull align 8 dereferenceable(264) %12, i32 noundef 1)
  br label %19

13:                                               ; preds = %2
  %14 = load ptr, ptr %3, align 8, !tbaa !37
  %15 = load ptr, ptr %4, align 8, !tbaa !17
  %16 = load ptr, ptr %4, align 8, !tbaa !17
  %17 = call noundef i64 @_ZNSt11char_traitsIcE6lengthEPKc(ptr noundef %16)
  %18 = call noundef nonnull align 8 dereferenceable(8) ptr @_ZSt16__ostream_insertIcSt11char_traitsIcEERSt13basic_ostreamIT_T0_ES6_PKS3_l(ptr noundef nonnull align 8 dereferenceable(8) %14, ptr noundef %15, i64 noundef %17)
  br label %19

19:                                               ; preds = %13, %7
  %20 = load ptr, ptr %3, align 8, !tbaa !37
  ret ptr %20
}

; Function Attrs: mustprogress uwtable
define linkonce_odr void @_ZN7rocksdb10JSONWriter8AddValueImEEvRKT_(ptr noundef nonnull align 8 dereferenceable(384) %0, ptr noundef nonnull align 8 dereferenceable(8) %1) #0 comdat align 2 {
  %3 = alloca ptr, align 8
  %4 = alloca ptr, align 8
  store ptr %0, ptr %3, align 8, !tbaa !39
  store ptr %1, ptr %4, align 8, !tbaa !25
  %5 = load ptr, ptr %3, align 8
  %6 = getelementptr inbounds nuw %"class.rocksdb::JSONWriter", ptr %5, i32 0, i32 0
  %7 = load i32, ptr %6, align 8, !tbaa !41
  %8 = icmp eq i32 %7, 2
  br i1 %8, label %9, label %16

9:                                                ; preds = %2
  %10 = getelementptr inbounds nuw %"class.rocksdb::JSONWriter", ptr %5, i32 0, i32 1
  %11 = load i8, ptr %10, align 4, !tbaa !54, !range !101, !noundef !102
  %12 = trunc i8 %11 to i1
  br i1 %12, label %16, label %13

13:                                               ; preds = %9
  %14 = getelementptr inbounds nuw %"class.rocksdb::JSONWriter", ptr %5, i32 0, i32 3
  %15 = call noundef nonnull align 8 dereferenceable(8) ptr @_ZStlsISt11char_traitsIcEERSt13basic_ostreamIcT_ES5_PKc(ptr noundef nonnull align 8 dereferenceable(8) %14, ptr noundef @.str.16)
  br label %16

16:                                               ; preds = %13, %9, %2
  %17 = getelementptr inbounds nuw %"class.rocksdb::JSONWriter", ptr %5, i32 0, i32 3
  %18 = load ptr, ptr %4, align 8, !tbaa !25
  %19 = load i64, ptr %18, align 8, !tbaa !16
  %20 = call noundef nonnull align 8 dereferenceable(8) ptr @_ZNSolsEm(ptr noundef nonnull align 8 dereferenceable(8) %17, i64 noundef %19)
  %21 = getelementptr inbounds nuw %"class.rocksdb::JSONWriter", ptr %5, i32 0, i32 0
  %22 = load i32, ptr %21, align 8, !tbaa !41
  %23 = icmp ne i32 %22, 2
  br i1 %23, label %24, label %26

24:                                               ; preds = %16
  %25 = getelementptr inbounds nuw %"class.rocksdb::JSONWriter", ptr %5, i32 0, i32 0
  store i32 0, ptr %25, align 8, !tbaa !41
  br label %26

26:                                               ; preds = %24, %16
  %27 = getelementptr inbounds nuw %"class.rocksdb::JSONWriter", ptr %5, i32 0, i32 1
  store i8 0, ptr %27, align 4, !tbaa !54
  ret void
}

; Function Attrs: mustprogress nounwind uwtable
define linkonce_odr noundef i64 @_ZNK7rocksdb15BlobFileGarbage19GetGarbageBlobBytesEv(ptr noundef nonnull align 8 dereferenceable(24) %0) #4 comdat align 2 {
  %2 = alloca ptr, align 8
  store ptr %0, ptr %2, align 8, !tbaa !4
  %3 = load ptr, ptr %2, align 8
  %4 = getelementptr inbounds nuw %"class.rocksdb::BlobFileGarbage", ptr %3, i32 0, i32 2
  %5 = load i64, ptr %4, align 8, !tbaa !15
  ret i64 %5
}

; Function Attrs: mustprogress nounwind uwtable
define linkonce_odr noundef i64 @_ZNK7rocksdb15BlobFileGarbage19GetGarbageBlobCountEv(ptr noundef nonnull align 8 dereferenceable(24) %0) #4 comdat align 2 {
  %2 = alloca ptr, align 8
  store ptr %0, ptr %2, align 8, !tbaa !4
  %3 = load ptr, ptr %2, align 8
  %4 = getelementptr inbounds nuw %"class.rocksdb::BlobFileGarbage", ptr %3, i32 0, i32 1
  %5 = load i64, ptr %4, align 8, !tbaa !14
  ret i64 %5
}

; Function Attrs: mustprogress uwtable
define linkonce_odr noundef nonnull align 8 dereferenceable(384) ptr @_ZN7rocksdb10JSONWriterlsImEERS0_RKT_(ptr noundef nonnull align 8 dereferenceable(384) %0, ptr noundef nonnull align 8 dereferenceable(8) %1) #0 comdat align 2 {
  %3 = alloca ptr, align 8
  %4 = alloca ptr, align 8
  store ptr %0, ptr %3, align 8, !tbaa !39
  store ptr %1, ptr %4, align 8, !tbaa !25
  %5 = load ptr, ptr %3, align 8
  %6 = load ptr, ptr %4, align 8, !tbaa !25
  call void @_ZN7rocksdb10JSONWriter8AddValueImEEvRKT_(ptr noundef nonnull align 8 dereferenceable(384) %5, ptr noundef nonnull align 8 dereferenceable(8) %6)
  ret ptr %5
}

; Function Attrs: mustprogress nounwind uwtable
define linkonce_odr noundef i64 @_ZNK7rocksdb15BlobFileGarbage17GetBlobFileNumberEv(ptr noundef nonnull align 8 dereferenceable(24) %0) #4 comdat align 2 {
  %2 = alloca ptr, align 8
  store ptr %0, ptr %2, align 8, !tbaa !4
  %3 = load ptr, ptr %2, align 8
  %4 = getelementptr inbounds nuw %"class.rocksdb::BlobFileGarbage", ptr %3, i32 0, i32 0
  %5 = load i64, ptr %4, align 8, !tbaa !11
  ret i64 %5
}

; Function Attrs: mustprogress uwtable
define noundef nonnull align 8 dereferenceable(384) ptr @_ZN7rocksdblsERNS_10JSONWriterERKNS_15BlobFileGarbageE(ptr noundef nonnull align 8 dereferenceable(384) %0, ptr noundef nonnull align 8 dereferenceable(24) %1) #0 {
  %3 = alloca ptr, align 8
  %4 = alloca ptr, align 8
  %5 = alloca i64, align 8
  %6 = alloca i64, align 8
  %7 = alloca i64, align 8
  store ptr %0, ptr %3, align 8, !tbaa !39
  store ptr %1, ptr %4, align 8, !tbaa !4
  %8 = load ptr, ptr %3, align 8, !tbaa !39
  %9 = call noundef nonnull align 8 dereferenceable(384) ptr @_ZN7rocksdb10JSONWriterlsEPKc(ptr noundef nonnull align 8 dereferenceable(384) %8, ptr noundef @.str.9)
  call void @llvm.lifetime.start.p0(i64 8, ptr %5) #14
  %10 = load ptr, ptr %4, align 8, !tbaa !4
  %11 = call noundef i64 @_ZNK7rocksdb15BlobFileGarbage17GetBlobFileNumberEv(ptr noundef nonnull align 8 dereferenceable(24) %10)
  store i64 %11, ptr %5, align 8, !tbaa !16
  %12 = call noundef nonnull align 8 dereferenceable(384) ptr @_ZN7rocksdb10JSONWriterlsImEERS0_RKT_(ptr noundef nonnull align 8 dereferenceable(384) %9, ptr noundef nonnull align 8 dereferenceable(8) %5)
  %13 = call noundef nonnull align 8 dereferenceable(384) ptr @_ZN7rocksdb10JSONWriterlsEPKc(ptr noundef nonnull align 8 dereferenceable(384) %12, ptr noundef @.str.10)
  call void @llvm.lifetime.start.p0(i64 8, ptr %6) #14
  %14 = load ptr, ptr %4, align 8, !tbaa !4
  %15 = call noundef i64 @_ZNK7rocksdb15BlobFileGarbage19GetGarbageBlobCountEv(ptr noundef nonnull align 8 dereferenceable(24) %14)
  store i64 %15, ptr %6, align 8, !tbaa !16
  %16 = call noundef nonnull align 8 dereferenceable(384) ptr @_ZN7rocksdb10JSONWriterlsImEERS0_RKT_(ptr noundef nonnull align 8 dereferenceable(384) %13, ptr noundef nonnull align 8 dereferenceable(8) %6)
  %17 = call noundef nonnull align 8 dereferenceable(384) ptr @_ZN7rocksdb10JSONWriterlsEPKc(ptr noundef nonnull align 8 dereferenceable(384) %16, ptr noundef @.str.11)
  call void @llvm.lifetime.start.p0(i64 8, ptr %7) #14
  %18 = load ptr, ptr %4, align 8, !tbaa !4
  %19 = call noundef i64 @_ZNK7rocksdb15BlobFileGarbage19GetGarbageBlobBytesEv(ptr noundef nonnull align 8 dereferenceable(24) %18)
  store i64 %19, ptr %7, align 8, !tbaa !16
  %20 = call noundef nonnull align 8 dereferenceable(384) ptr @_ZN7rocksdb10JSONWriterlsImEERS0_RKT_(ptr noundef nonnull align 8 dereferenceable(384) %17, ptr noundef nonnull align 8 dereferenceable(8) %7)
  call void @llvm.lifetime.end.p0(i64 8, ptr %7) #14
  call void @llvm.lifetime.end.p0(i64 8, ptr %6) #14
  call void @llvm.lifetime.end.p0(i64 8, ptr %5) #14
  %21 = load ptr, ptr %3, align 8, !tbaa !39
  ret ptr %21
}